; Function Attrs: mustprogress uwtable
define void @_ZNK6CMeshO4trBBEv(ptr dead_on_unwind noalias nonnull writable sret(%"class.vcg::Box3") align 4 %0, ptr noundef nonnull align 8 dereferenceable(1196) %1) local_unnamed_addr #4 align 2 personality ptr @__gxx_personality_v0 {
  %3 = getelementptr inbounds i8, ptr %0, i64 16
  store <4 x float> <float 1.000000e+00, float 1.000000e+00, float 1.000000e+00, float -1.000000e+00>, ptr %0, align 4
  store <2 x float> <float -1.000000e+00, float -1.000000e+00>, ptr %3, align 4
  %4 = getelementptr inbounds i8, ptr %1, i64 1132
  %5 = getelementptr inbounds i8, ptr %1, i64 652
  tail call void @_ZN3vcg4Box3IfE3AddERKNS_8Matrix44IfEERKS1_(ptr noundef nonnull align 4 dereferenceable(24) %0, ptr noundef nonnull align 4 dereferenceable(64) %4, ptr noundef nonnull align 4 dereferenceable(24) %5)
  ret void
}